; Function Attrs: mustprogress nofree norecurse nosync nounwind willreturn memory(read, inaccessiblemem: none) uwtable
define hidden noundef zeroext i1 @_ZNK11func_interp11is_constantEv(ptr nocapture noundef nonnull readonly align 8 dereferenceable(56) %this) local_unnamed_addr #7 align 2 {
entry:
  %m_else.i = getelementptr inbounds i8, ptr %this, i64 24
  %0 = load ptr, ptr %m_else.i, align 8
  %cmp.i = icmp eq ptr %0, null
  br i1 %cmp.i, label %return, label %if.end

if.end:                                           ; preds = %entry
  %m_kind.i.i.i = getelementptr inbounds i8, ptr %0, i64 4
  %bf.load.i.i.i = load i32, ptr %m_kind.i.i.i, align 4
  %bf.clear.i.i.i = and i32 %bf.load.i.i.i, 65535
  %cmp.i.i = icmp eq i32 %bf.clear.i.i.i, 0
  br i1 %cmp.i.i, label %_Z9is_groundPK4expr.exit, label %return

_Z9is_groundPK4expr.exit:                         ; preds = %if.end
  %m_num_args.i.i.i = getelementptr inbounds i8, ptr %0, i64 24
  %1 = load i32, ptr %m_num_args.i.i.i, align 8
  %cmp.i.i.i = icmp eq i32 %1, 0
  %m_args.i.i.i = getelementptr inbounds i8, ptr %0, i64 32
  %idx.ext.i.i.i = zext i32 %1 to i64
  %add.ptr.i.i.i = getelementptr inbounds ptr, ptr %m_args.i.i.i, i64 %idx.ext.i.i.i
  %cond.i.i.i = select i1 %cmp.i.i.i, ptr @_ZN3app16g_constant_flagsE, ptr %add.ptr.i.i.i
  %bf.load.i.i = load i32, ptr %cond.i.i.i, align 4
  %2 = and i32 %bf.load.i.i, 65536
  %tobool.i.i.not = icmp eq i32 %2, 0
  br i1 %tobool.i.i.not, label %return, label %if.end4

if.end4:                                          ; preds = %_Z9is_groundPK4expr.exit
  %m_entries = getelementptr inbounds i8, ptr %this, i64 16
  %3 = load ptr, ptr %m_entries, align 8
  %cmp.i.i4 = icmp eq ptr %3, null
  br i1 %cmp.i.i4, label %return, label %_ZNK6vectorIP10func_entryLb0EjE3endEv.exit

_ZNK6vectorIP10func_entryLb0EjE3endEv.exit:       ; preds = %if.end4
  %arrayidx.i.i = getelementptr inbounds i8, ptr %3, i64 -4
  %4 = load i32, ptr %arrayidx.i.i, align 4
  %5 = zext i32 %4 to i64
  %add.ptr.i = getelementptr inbounds ptr, ptr %3, i64 %5
  %cmp.not5 = icmp eq i32 %4, 0
  br i1 %cmp.not5, label %return, label %for.body

for.body:                                         ; preds = %_ZNK6vectorIP10func_entryLb0EjE3endEv.exit, %for.body
  %__begin1.06 = phi ptr [ %incdec.ptr, %for.body ], [ %3, %_ZNK6vectorIP10func_entryLb0EjE3endEv.exit ]
  %6 = load ptr, ptr %__begin1.06, align 8
  %m_result.i = getelementptr inbounds i8, ptr %6, i64 8
  %7 = load ptr, ptr %m_result.i, align 8
  %cmp9.not = icmp eq ptr %7, %0
  %incdec.ptr = getelementptr inbounds i8, ptr %__begin1.06, i64 8
  %cmp.not = icmp ne ptr %incdec.ptr, %add.ptr.i
  %or.cond.not = select i1 %cmp9.not, i1 %cmp.not, i1 false
  br i1 %or.cond.not, label %for.body, label %return

return:                                           ; preds = %for.body, %if.end4, %_ZNK6vectorIP10func_entryLb0EjE3endEv.exit, %if.end, %_Z9is_groundPK4expr.exit, %entry
  %retval.0 = phi i1 [ false, %entry ], [ false, %_Z9is_groundPK4expr.exit ], [ false, %if.end ], [ true, %_ZNK6vectorIP10func_entryLb0EjE3endEv.exit ], [ true, %if.end4 ], [ %cmp9.not, %for.body ]
  ret i1 %retval.0
}